target datalayout = "e-m:e-p270:32:32-p271:32:32-p272:64:64-i64:64-i128:128-f80:128-n8:16:32:64-S128"
target triple = "x86_64-pc-linux-gnu"

%struct._object = type { %union.anon, ptr }
%union.anon = type { i64 }
%struct.stringio = type { %struct._object, ptr, i64, i64, i64, i32, ptr, i8, i8, i8, i8, ptr, ptr, ptr, ptr, ptr, ptr }
%struct.anon = type { i32, i32 }

@PyExc_OverflowError = external global ptr, align 8
@.str.5 = private unnamed_addr constant [26 x i8] c"new buffer size too large\00", align 1
@_Py_NoneStruct = external global %struct._object, align 8

; Function Attrs: alwaysinline nounwind uwtable
define internal i32 @_Py_IsImmortal(ptr noundef %0) #4 {
  %2 = alloca ptr, align 8
  store ptr %0, ptr %2, align 8, !tbaa !37
  %3 = load ptr, ptr %2, align 8, !tbaa !37
  %4 = getelementptr inbounds nuw %struct._object, ptr %3, i32 0, i32 0
  %5 = getelementptr inbounds nuw %struct.anon, ptr %4, i32 0, i32 0
  %6 = load i32, ptr %5, align 8, !tbaa !49
  %7 = icmp slt i32 %6, 0
  %8 = zext i1 %7 to i32
  ret i32 %8
}

; Function Attrs: alwaysinline nounwind uwtable
define internal void @Py_DECREF(ptr noundef %0) #4 {
  %2 = alloca ptr, align 8
  store ptr %0, ptr %2, align 8, !tbaa !37
  %3 = load ptr, ptr %2, align 8, !tbaa !37
  %4 = call i32 @_Py_IsImmortal(ptr noundef %3)
  %5 = icmp ne i32 %4, 0
  br i1 %5, label %6, label %7

6:                                                ; preds = %1
  br label %16

7:                                                ; preds = %1
  %8 = load ptr, ptr %2, align 8, !tbaa !37
  %9 = getelementptr inbounds nuw %struct._object, ptr %8, i32 0, i32 0
  %10 = getelementptr inbounds nuw %struct.anon, ptr %9, i32 0, i32 0
  %11 = load i32, ptr %10, align 8, !tbaa !49
  %12 = add i32 %11, -1
  store i32 %12, ptr %10, align 8, !tbaa !49
  %13 = icmp eq i32 %12, 0
  br i1 %13, label %14, label %16

14:                                               ; preds = %7
  %15 = load ptr, ptr %2, align 8, !tbaa !37
  call void @_Py_Dealloc(ptr noundef %15)
  br label %16

16:                                               ; preds = %6, %14, %7
  ret void
}

; Function Attrs: nounwind uwtable
define internal i32 @resize_buffer(ptr noundef %0, i64 noundef %1) #0 {
  %3 = alloca i32, align 4
  %4 = alloca ptr, align 8
  %5 = alloca i64, align 8
  %6 = alloca i64, align 8
  %7 = alloca ptr, align 8
  %8 = alloca i32, align 4
  store ptr %0, ptr %4, align 8, !tbaa !4
  store i64 %1, ptr %5, align 8, !tbaa !43
  call void @llvm.lifetime.start.p0(i64 8, ptr %6) #7
  %9 = load ptr, ptr %4, align 8, !tbaa !4
  %10 = getelementptr inbounds nuw %struct.stringio, ptr %9, i32 0, i32 4
  %11 = load i64, ptr %10, align 8, !tbaa !61
  store i64 %11, ptr %6, align 8, !tbaa !43
  call void @llvm.lifetime.start.p0(i64 8, ptr %7) #7
  store ptr null, ptr %7, align 8, !tbaa !54
  %12 = load i64, ptr %5, align 8, !tbaa !43
  %13 = add i64 %12, 1
  store i64 %13, ptr %5, align 8, !tbaa !43
  %14 = load i64, ptr %5, align 8, !tbaa !43
  %15 = icmp ugt i64 %14, 9223372036854775807
  br i1 %15, label %16, label %17

16:                                               ; preds = %2
  br label %74

17:                                               ; preds = %2
  %18 = load i64, ptr %5, align 8, !tbaa !43
  %19 = load i64, ptr %6, align 8, !tbaa !43
  %20 = udiv i64 %19, 2
  %21 = icmp ult i64 %18, %20
  br i1 %21, label %22, label %25

22:                                               ; preds = %17
  %23 = load i64, ptr %5, align 8, !tbaa !43
  %24 = add i64 %23, 1
  store i64 %24, ptr %6, align 8, !tbaa !43
  br label %52

25:                                               ; preds = %17
  %26 = load i64, ptr %5, align 8, !tbaa !43
  %27 = load i64, ptr %6, align 8, !tbaa !43
  %28 = icmp ult i64 %26, %27
  br i1 %28, label %29, label %30

29:                                               ; preds = %25
  store i32 0, ptr %3, align 4
  store i32 1, ptr %8, align 4
  br label %76

30:                                               ; preds = %25
  %31 = load i64, ptr %5, align 8, !tbaa !43
  %32 = uitofp i64 %31 to double
  %33 = load i64, ptr %6, align 8, !tbaa !43
  %34 = uitofp i64 %33 to double
  %35 = fmul double %34, 1.125000e+00
  %36 = fcmp ole double %32, %35
  br i1 %36, label %37, label %47

37:                                               ; preds = %30
  %38 = load i64, ptr %5, align 8, !tbaa !43
  %39 = load i64, ptr %5, align 8, !tbaa !43
  %40 = lshr i64 %39, 3
  %41 = add i64 %38, %40
  %42 = load i64, ptr %5, align 8, !tbaa !43
  %43 = icmp ult i64 %42, 9
  %44 = select i1 %43, i32 3, i32 6
  %45 = sext i32 %44 to i64
  %46 = add i64 %41, %45
  store i64 %46, ptr %6, align 8, !tbaa !43
  br label %50

47:                                               ; preds = %30
  %48 = load i64, ptr %5, align 8, !tbaa !43
  %49 = add i64 %48, 1
  store i64 %49, ptr %6, align 8, !tbaa !43
  br label %50

50:                                               ; preds = %47, %37
  br label %51

51:                                               ; preds = %50
  br label %52

52:                                               ; preds = %51, %22
  %53 = load i64, ptr %6, align 8, !tbaa !43
  %54 = icmp ugt i64 %53, 4611686018427387903
  br i1 %54, label %55, label %56

55:                                               ; preds = %52
  br label %74

56:                                               ; preds = %52
  %57 = load ptr, ptr %4, align 8, !tbaa !4
  %58 = getelementptr inbounds nuw %struct.stringio, ptr %57, i32 0, i32 1
  %59 = load ptr, ptr %58, align 8, !tbaa !19
  %60 = load i64, ptr %6, align 8, !tbaa !43
  %61 = mul i64 %60, 4
  %62 = call ptr @PyMem_Realloc(ptr noundef %59, i64 noundef %61)
  store ptr %62, ptr %7, align 8, !tbaa !54
  %63 = load ptr, ptr %7, align 8, !tbaa !54
  %64 = icmp eq ptr %63, null
  br i1 %64, label %65, label %67

65:                                               ; preds = %56
  %66 = call ptr @PyErr_NoMemory()
  store i32 -1, ptr %3, align 4
  store i32 1, ptr %8, align 4
  br label %76

67:                                               ; preds = %56
  %68 = load i64, ptr %6, align 8, !tbaa !43
  %69 = load ptr, ptr %4, align 8, !tbaa !4
  %70 = getelementptr inbounds nuw %struct.stringio, ptr %69, i32 0, i32 4
  store i64 %68, ptr %70, align 8, !tbaa !61
  %71 = load ptr, ptr %7, align 8, !tbaa !54
  %72 = load ptr, ptr %4, align 8, !tbaa !4
  %73 = getelementptr inbounds nuw %struct.stringio, ptr %72, i32 0, i32 1
  store ptr %71, ptr %73, align 8, !tbaa !19
  store i32 0, ptr %3, align 4
  store i32 1, ptr %8, align 4
  br label %76

74:                                               ; preds = %55, %16
  %75 = load ptr, ptr @PyExc_OverflowError, align 8, !tbaa !37
  call void @PyErr_SetString(ptr noundef %75, ptr noundef @.str.5)
  store i32 -1, ptr %3, align 4
  store i32 1, ptr %8, align 4
  br label %76

76:                                               ; preds = %74, %67, %65, %29
  call void @llvm.lifetime.end.p0(i64 8, ptr %7) #7
  call void @llvm.lifetime.end.p0(i64 8, ptr %6) #7
  %77 = load i32, ptr %3, align 4
  ret i32 %77
}

; Function Attrs: nounwind uwtable
define internal ptr @_io_StringIO_close_impl(ptr noundef %0) #0 {
  %2 = alloca ptr, align 8
  %3 = alloca ptr, align 8
  %4 = alloca ptr, align 8
  %5 = alloca ptr, align 8
  %6 = alloca ptr, align 8
  %7 = alloca ptr, align 8
  %8 = alloca ptr, align 8
  %9 = alloca ptr, align 8
  store ptr %0, ptr %3, align 8, !tbaa !4
  %10 = load ptr, ptr %3, align 8, !tbaa !4
  %11 = getelementptr inbounds nuw %struct.stringio, ptr %10, i32 0, i32 8
  store i8 1, ptr %11, align 1, !tbaa !38
  %12 = load ptr, ptr %3, align 8, !tbaa !4
  %13 = call i32 @resize_buffer(ptr noundef %12, i64 noundef 0)
  %14 = icmp slt i32 %13, 0
  br i1 %14, label %15, label %16

15:                                               ; preds = %1
  store ptr null, ptr %2, align 8
  br label %58

16:                                               ; preds = %1
  %17 = load ptr, ptr %3, align 8, !tbaa !4
  %18 = getelementptr inbounds nuw %struct.stringio, ptr %17, i32 0, i32 6
  %19 = load ptr, ptr %18, align 8, !tbaa !20
  call void @PyUnicodeWriter_Discard(ptr noundef %19)
  %20 = load ptr, ptr %3, align 8, !tbaa !4
  %21 = getelementptr inbounds nuw %struct.stringio, ptr %20, i32 0, i32 6
  store ptr null, ptr %21, align 8, !tbaa !20
  br label %22

22:                                               ; preds = %16
  call void @llvm.lifetime.start.p0(i64 8, ptr %4) #7
  %23 = load ptr, ptr %3, align 8, !tbaa !4
  %24 = getelementptr inbounds nuw %struct.stringio, ptr %23, i32 0, i32 12
  store ptr %24, ptr %4, align 8, !tbaa !35
  call void @llvm.lifetime.start.p0(i64 8, ptr %5) #7
  %25 = load ptr, ptr %4, align 8, !tbaa !35
  %26 = load ptr, ptr %25, align 8, !tbaa !37
  store ptr %26, ptr %5, align 8, !tbaa !37
  %27 = load ptr, ptr %5, align 8, !tbaa !37
  %28 = icmp ne ptr %27, null
  br i1 %28, label %29, label %32

29:                                               ; preds = %22
  %30 = load ptr, ptr %4, align 8, !tbaa !35
  store ptr null, ptr %30, align 8, !tbaa !37
  %31 = load ptr, ptr %5, align 8, !tbaa !37
  call void @Py_DECREF(ptr noundef %31)
  br label %32

32:                                               ; preds = %29, %22
  call void @llvm.lifetime.end.p0(i64 8, ptr %5) #7
  call void @llvm.lifetime.end.p0(i64 8, ptr %4) #7
  br label %33

33:                                               ; preds = %32
  br label %34

34:                                               ; preds = %33
  call void @llvm.lifetime.start.p0(i64 8, ptr %6) #7
  %35 = load ptr, ptr %3, align 8, !tbaa !4
  %36 = getelementptr inbounds nuw %struct.stringio, ptr %35, i32 0, i32 13
  store ptr %36, ptr %6, align 8, !tbaa !35
  call void @llvm.lifetime.start.p0(i64 8, ptr %7) #7
  %37 = load ptr, ptr %6, align 8, !tbaa !35
  %38 = load ptr, ptr %37, align 8, !tbaa !37
  store ptr %38, ptr %7, align 8, !tbaa !37
  %39 = load ptr, ptr %7, align 8, !tbaa !37
  %40 = icmp ne ptr %39, null
  br i1 %40, label %41, label %44

41:                                               ; preds = %34
  %42 = load ptr, ptr %6, align 8, !tbaa !35
  store ptr null, ptr %42, align 8, !tbaa !37
  %43 = load ptr, ptr %7, align 8, !tbaa !37
  call void @Py_DECREF(ptr noundef %43)
  br label %44

44:                                               ; preds = %41, %34
  call void @llvm.lifetime.end.p0(i64 8, ptr %7) #7
  call void @llvm.lifetime.end.p0(i64 8, ptr %6) #7
  br label %45

45:                                               ; preds = %44
  br label %46

46:                                               ; preds = %45
  call void @llvm.lifetime.start.p0(i64 8, ptr %8) #7
  %47 = load ptr, ptr %3, align 8, !tbaa !4
  %48 = getelementptr inbounds nuw %struct.stringio, ptr %47, i32 0, i32 11
  store ptr %48, ptr %8, align 8, !tbaa !35
  call void @llvm.lifetime.start.p0(i64 8, ptr %9) #7
  %49 = load ptr, ptr %8, align 8, !tbaa !35
  %50 = load ptr, ptr %49, align 8, !tbaa !37
  store ptr %50, ptr %9, align 8, !tbaa !37
  %51 = load ptr, ptr %9, align 8, !tbaa !37
  %52 = icmp ne ptr %51, null
  br i1 %52, label %53, label %56

53:                                               ; preds = %46
  %54 = load ptr, ptr %8, align 8, !tbaa !35
  store ptr null, ptr %54, align 8, !tbaa !37
  %55 = load ptr, ptr %9, align 8, !tbaa !37
  call void @Py_DECREF(ptr noundef %55)
  br label %56

56:                                               ; preds = %53, %46
  call void @llvm.lifetime.end.p0(i64 8, ptr %9) #7
  call void @llvm.lifetime.end.p0(i64 8, ptr %8) #7
  br label %57

57:                                               ; preds = %56
  store ptr @_Py_NoneStruct, ptr %2, align 8
  br label %58

58:                                               ; preds = %57, %15
  %59 = load ptr, ptr %2, align 8
  ret ptr %59
}

; Function Attrs: nounwind uwtable
define internal ptr @_io_StringIO_close(ptr noundef %0, ptr noundef %1) #0 {
  %3 = alloca ptr, align 8
  %4 = alloca ptr, align 8
  %5 = alloca ptr, align 8
  store ptr %0, ptr %3, align 8, !tbaa !37
  store ptr %1, ptr %4, align 8, !tbaa !37
  call void @llvm.lifetime.start.p0(i64 8, ptr %5) #7
  store ptr null, ptr %5, align 8, !tbaa !37
  %6 = load ptr, ptr %3, align 8, !tbaa !37
  %7 = call ptr @_io_StringIO_close_impl(ptr noundef %6)
  store ptr %7, ptr %5, align 8, !tbaa !37
  %8 = load ptr, ptr %5, align 8, !tbaa !37
  call void @llvm.lifetime.end.p0(i64 8, ptr %5) #7
  ret ptr %8
}