; Function Attrs: nounwind uwtable
define internal noundef ptr @_io_StringIO_close(ptr noundef captures(none) initializes((65, 66)) %0, ptr readnone captures(none) %1) #0 {
  %3 = getelementptr inbounds nuw i8, ptr %0, i64 65
  store i8 1, ptr %3, align 1, !tbaa !38
  %4 = getelementptr inbounds nuw i8, ptr %0, i64 40
  %5 = load i64, ptr %4, align 8, !tbaa !61
  %6 = icmp ugt i64 %5, 3
  br i1 %6, label %14, label %7

7:                                                ; preds = %2
  %8 = icmp samesign ugt i64 %5, 1
  br i1 %8, label %22, label %9

9:                                                ; preds = %7
  %10 = uitofp nneg i64 %5 to double
  %11 = fmul double %10, 1.125000e+00
  %12 = fcmp ult double %11, 1.000000e+00
  br i1 %12, label %13, label %14

13:                                               ; preds = %9
  br label %14

14:                                               ; preds = %13, %9, %2
  %.0.i.i = phi i64 [ 2, %13 ], [ 2, %2 ], [ 4, %9 ]
  %15 = getelementptr inbounds nuw i8, ptr %0, i64 16
  %16 = load ptr, ptr %15, align 8, !tbaa !21
  %17 = shl nuw nsw i64 %.0.i.i, 2
  %18 = tail call ptr @PyMem_Realloc(ptr noundef %16, i64 noundef %17) #6
  %19 = icmp eq ptr %18, null
  br i1 %19, label %resize_buffer.exit.i, label %20

20:                                               ; preds = %14
  store i64 %.0.i.i, ptr %4, align 8, !tbaa !61
  store ptr %18, ptr %15, align 8, !tbaa !21
  br label %22

resize_buffer.exit.i:                             ; preds = %14
  %21 = tail call ptr @PyErr_NoMemory() #6
  br label %_io_StringIO_close_impl.exit

22:                                               ; preds = %20, %7
  %23 = getelementptr inbounds nuw i8, ptr %0, i64 56
  %24 = load ptr, ptr %23, align 8, !tbaa !22
  tail call void @PyUnicodeWriter_Discard(ptr noundef %24) #6
  store ptr null, ptr %23, align 8, !tbaa !22
  %25 = getelementptr inbounds nuw i8, ptr %0, i64 80
  %26 = load ptr, ptr %25, align 8, !tbaa !37
  %.not.i = icmp eq ptr %26, null
  br i1 %.not.i, label %Py_DECREF.exit28.i, label %27

27:                                               ; preds = %22
  store ptr null, ptr %25, align 8, !tbaa !37
  %28 = load i32, ptr %26, align 8, !tbaa !32
  %.not.i27.i = icmp sgt i32 %28, -1
  br i1 %.not.i27.i, label %29, label %Py_DECREF.exit28.i

29:                                               ; preds = %27
  %30 = add nsw i32 %28, -1
  store i32 %30, ptr %26, align 8, !tbaa !32
  %31 = icmp eq i32 %30, 0
  br i1 %31, label %32, label %Py_DECREF.exit28.i

32:                                               ; preds = %29
  tail call void @_Py_Dealloc(ptr noundef nonnull %26) #6
  br label %Py_DECREF.exit28.i

Py_DECREF.exit28.i:                               ; preds = %32, %29, %27, %22
  %33 = getelementptr inbounds nuw i8, ptr %0, i64 88
  %34 = load ptr, ptr %33, align 8, !tbaa !37
  %.not23.i = icmp eq ptr %34, null
  br i1 %.not23.i, label %Py_DECREF.exit26.i, label %35

35:                                               ; preds = %Py_DECREF.exit28.i
  store ptr null, ptr %33, align 8, !tbaa !37
  %36 = load i32, ptr %34, align 8, !tbaa !32
  %.not.i25.i = icmp sgt i32 %36, -1
  br i1 %.not.i25.i, label %37, label %Py_DECREF.exit26.i

37:                                               ; preds = %35
  %38 = add nsw i32 %36, -1
  store i32 %38, ptr %34, align 8, !tbaa !32
  %39 = icmp eq i32 %38, 0
  br i1 %39, label %40, label %Py_DECREF.exit26.i

40:                                               ; preds = %37
  tail call void @_Py_Dealloc(ptr noundef nonnull %34) #6
  br label %Py_DECREF.exit26.i

Py_DECREF.exit26.i:                               ; preds = %40, %37, %35, %Py_DECREF.exit28.i
  %41 = getelementptr inbounds nuw i8, ptr %0, i64 72
  %42 = load ptr, ptr %41, align 8, !tbaa !37
  %.not24.i = icmp eq ptr %42, null
  br i1 %.not24.i, label %_io_StringIO_close_impl.exit, label %43

43:                                               ; preds = %Py_DECREF.exit26.i
  store ptr null, ptr %41, align 8, !tbaa !37
  %44 = load i32, ptr %42, align 8, !tbaa !32
  %.not.i.i = icmp sgt i32 %44, -1
  br i1 %.not.i.i, label %45, label %_io_StringIO_close_impl.exit

45:                                               ; preds = %43
  %46 = add nsw i32 %44, -1
  store i32 %46, ptr %42, align 8, !tbaa !32
  %47 = icmp eq i32 %46, 0
  br i1 %47, label %48, label %_io_StringIO_close_impl.exit

48:                                               ; preds = %45
  tail call void @_Py_Dealloc(ptr noundef nonnull %42) #6
  br label %_io_StringIO_close_impl.exit

_io_StringIO_close_impl.exit:                     ; preds = %resize_buffer.exit.i, %Py_DECREF.exit26.i, %43, %45, %48
  %.0.i = phi ptr [ null, %resize_buffer.exit.i ], [ @_Py_NoneStruct, %Py_DECREF.exit26.i ], [ @_Py_NoneStruct, %43 ], [ @_Py_NoneStruct, %45 ], [ @_Py_NoneStruct, %48 ]
  ret ptr %.0.i
}